; Function Attrs: nounwind uwtable
define ptr @Gia_ManIsoFindString(ptr noundef %0, i32 noundef %1, i32 noundef %2, ptr noundef %3) local_unnamed_addr #8 {
  %5 = alloca i32, align 4
  store i32 %1, ptr %5, align 4, !tbaa !43
  %6 = call ptr @Gia_ManDupCones(ptr noundef %0, ptr noundef nonnull %5, i32 noundef 1, i32 noundef 1) #26
  %7 = getelementptr i8, ptr %6, i64 64
  %.val30 = load ptr, ptr %7, align 8, !tbaa !52
  %8 = getelementptr i8, ptr %.val30, i64 4
  %.val30.val = load i32, ptr %8, align 4, !tbaa !37
  %9 = icmp eq i32 %.val30.val, 0
  br i1 %9, label %10, label %13

10:                                               ; preds = %4
  %11 = call ptr @Gia_AigerWriteIntoMemoryStr(ptr noundef nonnull %6) #26
  call void @Gia_ManStop(ptr noundef nonnull %6) #26
  %.not = icmp eq ptr %3, null
  br i1 %.not, label %73, label %12

12:                                               ; preds = %10
  %calloc = call dereferenceable_or_null(16) ptr @calloc(i64 1, i64 16)
  store ptr %calloc, ptr %3, align 8, !tbaa !120
  br label %73

13:                                               ; preds = %4
  %14 = call ptr @Gia_IsoDeriveEquivPos(ptr noundef nonnull %6, i32 noundef 0, i32 noundef %2)
  %15 = icmp eq ptr %14, null
  br i1 %15, label %Vec_VecFreeP.exit, label %16

16:                                               ; preds = %13
  %17 = getelementptr i8, ptr %14, i64 4
  %.val11.i.i = load i32, ptr %17, align 4, !tbaa !128
  %18 = icmp sgt i32 %.val11.i.i, 0
  %19 = getelementptr i8, ptr %14, i64 8
  %.val8.i.i = load ptr, ptr %19, align 8, !tbaa !74
  br i1 %18, label %.lr.ph.i.i, label %.critedge.i.i

.lr.ph.i.i:                                       ; preds = %16
  %20 = zext nneg i32 %.val11.i.i to i64
  br label %21

21:                                               ; preds = %28, %.lr.ph.i.i
  %indvars.iv.i.i = phi i64 [ 0, %.lr.ph.i.i ], [ %indvars.iv.next.i.i, %28 ]
  %22 = getelementptr inbounds nuw ptr, ptr %.val8.i.i, i64 %indvars.iv.i.i
  %23 = load ptr, ptr %22, align 8, !tbaa !74
  %.not.i.i = icmp eq ptr %23, null
  br i1 %.not.i.i, label %28, label %24

24:                                               ; preds = %21
  %25 = getelementptr inbounds nuw i8, ptr %23, i64 8
  %26 = load ptr, ptr %25, align 8, !tbaa !72
  %.not.i.i.i = icmp eq ptr %26, null
  br i1 %.not.i.i.i, label %Vec_PtrFree.exit.i.i, label %27

27:                                               ; preds = %24
  call void @free(ptr noundef nonnull %26) #26
  br label %Vec_PtrFree.exit.i.i

Vec_PtrFree.exit.i.i:                             ; preds = %27, %24
  call void @free(ptr noundef nonnull %23) #26
  br label %28

28:                                               ; preds = %Vec_PtrFree.exit.i.i, %21
  %indvars.iv.next.i.i = add nuw nsw i64 %indvars.iv.i.i, 1
  %exitcond.not = icmp eq i64 %indvars.iv.next.i.i, %20
  br i1 %exitcond.not, label %.critedge.i.i.thread, label %21, !llvm.loop !129

.critedge.i.i:                                    ; preds = %16
  %.not.i9.i.i = icmp eq ptr %.val8.i.i, null
  br i1 %.not.i9.i.i, label %Vec_VecFree.exit.i, label %.critedge.i.i.thread

.critedge.i.i.thread:                             ; preds = %28, %.critedge.i.i
  call void @free(ptr noundef nonnull %.val8.i.i) #26
  br label %Vec_VecFree.exit.i

Vec_VecFree.exit.i:                               ; preds = %.critedge.i.i.thread, %.critedge.i.i
  call void @free(ptr noundef nonnull %14) #26
  br label %Vec_VecFreeP.exit

Vec_VecFreeP.exit:                                ; preds = %13, %Vec_VecFree.exit.i
  %.val29 = load ptr, ptr %7, align 8, !tbaa !52
  %29 = getelementptr i8, ptr %.val29, i64 4
  %.val29.val = load i32, ptr %29, align 4, !tbaa !37
  %30 = call noalias dereferenceable_or_null(16) ptr @malloc(i64 noundef 16) #25
  %31 = add i32 %.val29.val, -1
  %or.cond.i = icmp ult i32 %31, 15
  %spec.store.select.i = select i1 %or.cond.i, i32 16, i32 %.val29.val
  %32 = getelementptr inbounds nuw i8, ptr %30, i64 4
  store i32 0, ptr %32, align 4, !tbaa !37
  store i32 %spec.store.select.i, ptr %30, align 8, !tbaa !38
  %.not.i = icmp eq i32 %spec.store.select.i, 0
  br i1 %.not.i, label %Vec_IntAlloc.exit, label %33

33:                                               ; preds = %Vec_VecFreeP.exit
  %34 = sext i32 %spec.store.select.i to i64
  %35 = shl nsw i64 %34, 2
  %36 = call noalias ptr @malloc(i64 noundef %35) #25
  br label %Vec_IntAlloc.exit

Vec_IntAlloc.exit:                                ; preds = %Vec_VecFreeP.exit, %33
  %37 = phi ptr [ %36, %33 ], [ null, %Vec_VecFreeP.exit ]
  %38 = getelementptr inbounds nuw i8, ptr %30, i64 8
  store ptr %37, ptr %38, align 8, !tbaa !39
  %39 = getelementptr inbounds nuw i8, ptr %6, i64 24
  %40 = load i32, ptr %39, align 8, !tbaa !14
  %41 = getelementptr inbounds nuw i8, ptr %6, i64 72
  %42 = load ptr, ptr %41, align 8, !tbaa !55
  %43 = getelementptr i8, ptr %42, i64 4
  %.val.i = load i32, ptr %43, align 4, !tbaa !37
  %44 = add i32 %.val.i, %.val29.val
  %45 = xor i32 %44, -1
  %46 = add i32 %40, %45
  %47 = call noalias dereferenceable_or_null(16) ptr @malloc(i64 noundef 16) #25
  %48 = add i32 %46, -1
  %or.cond.i31 = icmp ult i32 %48, 15
  %spec.store.select.i32 = select i1 %or.cond.i31, i32 16, i32 %46
  %49 = getelementptr inbounds nuw i8, ptr %47, i64 4
  store i32 0, ptr %49, align 4, !tbaa !37
  store i32 %spec.store.select.i32, ptr %47, align 8, !tbaa !38
  %.not.i33 = icmp eq i32 %spec.store.select.i32, 0
  br i1 %.not.i33, label %Vec_IntAlloc.exit34, label %50

50:                                               ; preds = %Vec_IntAlloc.exit
  %51 = sext i32 %spec.store.select.i32 to i64
  %52 = shl nsw i64 %51, 2
  %53 = call noalias ptr @malloc(i64 noundef %52) #25
  br label %Vec_IntAlloc.exit34

Vec_IntAlloc.exit34:                              ; preds = %Vec_IntAlloc.exit, %50
  %54 = phi ptr [ %53, %50 ], [ null, %Vec_IntAlloc.exit ]
  %55 = getelementptr inbounds nuw i8, ptr %47, i64 8
  store ptr %54, ptr %55, align 8, !tbaa !39
  %56 = call noalias dereferenceable_or_null(16) ptr @malloc(i64 noundef 16) #25
  %57 = add i32 %.val.i, -1
  %or.cond.i35 = icmp ult i32 %57, 15
  %spec.store.select.i36 = select i1 %or.cond.i35, i32 16, i32 %.val.i
  %58 = getelementptr inbounds nuw i8, ptr %56, i64 4
  store i32 0, ptr %58, align 4, !tbaa !37
  store i32 %spec.store.select.i36, ptr %56, align 8, !tbaa !38
  %.not.i37 = icmp eq i32 %spec.store.select.i36, 0
  br i1 %.not.i37, label %Vec_IntAlloc.exit38, label %59

59:                                               ; preds = %Vec_IntAlloc.exit34
  %60 = sext i32 %spec.store.select.i36 to i64
  %61 = shl nsw i64 %60, 2
  %62 = call noalias ptr @malloc(i64 noundef %61) #25
  br label %Vec_IntAlloc.exit38

Vec_IntAlloc.exit38:                              ; preds = %Vec_IntAlloc.exit34, %59
  %63 = phi ptr [ %62, %59 ], [ null, %Vec_IntAlloc.exit34 ]
  %64 = getelementptr inbounds nuw i8, ptr %56, i64 8
  store ptr %63, ptr %64, align 8, !tbaa !39
  call void @Gia_ManFindCaninicalOrder(ptr noundef nonnull %6, ptr noundef nonnull %30, ptr noundef nonnull %47, ptr noundef nonnull %56, ptr noundef %3)
  %65 = getelementptr i8, ptr %6, i64 16
  %.val = load i32, ptr %65, align 8, !tbaa !73
  %66 = call ptr @Gia_AigerWriteIntoMemoryStrPart(ptr noundef nonnull %6, ptr noundef nonnull %30, ptr noundef nonnull %47, ptr noundef nonnull %56, i32 noundef %.val) #26
  %67 = load ptr, ptr %38, align 8, !tbaa !39
  %.not.i39 = icmp eq ptr %67, null
  br i1 %.not.i39, label %Vec_IntFree.exit, label %68

68:                                               ; preds = %Vec_IntAlloc.exit38
  call void @free(ptr noundef nonnull %67) #26
  br label %Vec_IntFree.exit

Vec_IntFree.exit:                                 ; preds = %Vec_IntAlloc.exit38, %68
  call void @free(ptr noundef nonnull %30) #26
  %69 = load ptr, ptr %55, align 8, !tbaa !39
  %.not.i40 = icmp eq ptr %69, null
  br i1 %.not.i40, label %Vec_IntFree.exit41, label %70

70:                                               ; preds = %Vec_IntFree.exit
  call void @free(ptr noundef nonnull %69) #26
  br label %Vec_IntFree.exit41

Vec_IntFree.exit41:                               ; preds = %Vec_IntFree.exit, %70
  call void @free(ptr noundef nonnull %47) #26
  %71 = load ptr, ptr %64, align 8, !tbaa !39
  %.not.i42 = icmp eq ptr %71, null
  br i1 %.not.i42, label %Vec_IntFree.exit43, label %72

72:                                               ; preds = %Vec_IntFree.exit41
  call void @free(ptr noundef nonnull %71) #26
  br label %Vec_IntFree.exit43

Vec_IntFree.exit43:                               ; preds = %Vec_IntFree.exit41, %72
  call void @free(ptr noundef nonnull %56) #26
  call void @Gia_ManStop(ptr noundef nonnull %6) #26
  br label %73

73:                                               ; preds = %10, %12, %Vec_IntFree.exit43
  %.0 = phi ptr [ %66, %Vec_IntFree.exit43 ], [ %11, %12 ], [ %11, %10 ]
  ret ptr %.0
}